target datalayout = "e-m:e-p270:32:32-p271:32:32-p272:64:64-i64:64-i128:128-f80:128-n8:16:32:64-S128"
target triple = "x86_64-pc-linux-gnu"

%"class.OpenImageIO::v3_1_0::(anonymous namespace)::SampleComparator" = type <{ ptr, i32, i32, i32, [4 x i8] }>
%"struct.__gnu_cxx::__ops::_Iter_comp_iter" = type { %"class.OpenImageIO::v3_1_0::(anonymous namespace)::SampleComparator" }

; Function Attrs: mustprogress uwtable
define internal void @_ZSt22__stable_sort_adaptiveIPiS0_lN9__gnu_cxx5__ops15_Iter_comp_iterIN11OpenImageIO6v3_1_012_GLOBAL__N_116SampleComparatorEEEEvT_S9_T0_T1_T2_(ptr noundef %0, ptr noundef %1, ptr noundef %2, i64 noundef %3, ptr noundef byval(%"struct.__gnu_cxx::__ops::_Iter_comp_iter") align 8 %4) #6 {
  %6 = alloca ptr, align 8
  %7 = alloca ptr, align 8
  %8 = alloca ptr, align 8
  %9 = alloca i64, align 8
  %10 = alloca i64, align 8
  %11 = alloca ptr, align 8
  %12 = alloca %"struct.__gnu_cxx::__ops::_Iter_comp_iter", align 8
  %13 = alloca %"struct.__gnu_cxx::__ops::_Iter_comp_iter", align 8
  %14 = alloca %"struct.__gnu_cxx::__ops::_Iter_comp_iter", align 8
  %15 = alloca %"struct.__gnu_cxx::__ops::_Iter_comp_iter", align 8
  %16 = alloca %"struct.__gnu_cxx::__ops::_Iter_comp_iter", align 8
  store ptr %0, ptr %6, align 8, !tbaa !128
  store ptr %1, ptr %7, align 8, !tbaa !128
  store ptr %2, ptr %8, align 8, !tbaa !128
  store i64 %3, ptr %9, align 8, !tbaa !64
  call void @llvm.lifetime.start.p0(i64 8, ptr %10) #3
  %17 = load ptr, ptr %7, align 8, !tbaa !128
  %18 = load ptr, ptr %6, align 8, !tbaa !128
  %19 = ptrtoint ptr %17 to i64
  %20 = ptrtoint ptr %18 to i64
  %21 = sub i64 %19, %20
  %22 = sdiv exact i64 %21, 4
  %23 = add nsw i64 %22, 1
  %24 = sdiv i64 %23, 2
  store i64 %24, ptr %10, align 8, !tbaa !64
  call void @llvm.lifetime.start.p0(i64 8, ptr %11) #3
  %25 = load ptr, ptr %6, align 8, !tbaa !128
  %26 = load i64, ptr %10, align 8, !tbaa !64
  %27 = getelementptr inbounds i32, ptr %25, i64 %26
  store ptr %27, ptr %11, align 8, !tbaa !128
  %28 = load i64, ptr %10, align 8, !tbaa !64
  %29 = load i64, ptr %9, align 8, !tbaa !64
  %30 = icmp sgt i64 %28, %29
  br i1 %30, label %31, label %40

31:                                               ; preds = %5
  %32 = load ptr, ptr %6, align 8, !tbaa !128
  %33 = load ptr, ptr %11, align 8, !tbaa !128
  %34 = load ptr, ptr %8, align 8, !tbaa !128
  %35 = load i64, ptr %9, align 8, !tbaa !64
  call void @llvm.memcpy.p0.p0.i64(ptr align 8 %12, ptr align 8 %4, i64 24, i1 false), !tbaa.struct !430
  call void @_ZSt22__stable_sort_adaptiveIPiS0_lN9__gnu_cxx5__ops15_Iter_comp_iterIN11OpenImageIO6v3_1_012_GLOBAL__N_116SampleComparatorEEEEvT_S9_T0_T1_T2_(ptr noundef %32, ptr noundef %33, ptr noundef %34, i64 noundef %35, ptr noundef byval(%"struct.__gnu_cxx::__ops::_Iter_comp_iter") align 8 %12)
  %36 = load ptr, ptr %11, align 8, !tbaa !128
  %37 = load ptr, ptr %7, align 8, !tbaa !128
  %38 = load ptr, ptr %8, align 8, !tbaa !128
  %39 = load i64, ptr %9, align 8, !tbaa !64
  call void @llvm.memcpy.p0.p0.i64(ptr align 8 %13, ptr align 8 %4, i64 24, i1 false), !tbaa.struct !430
  call void @_ZSt22__stable_sort_adaptiveIPiS0_lN9__gnu_cxx5__ops15_Iter_comp_iterIN11OpenImageIO6v3_1_012_GLOBAL__N_116SampleComparatorEEEEvT_S9_T0_T1_T2_(ptr noundef %36, ptr noundef %37, ptr noundef %38, i64 noundef %39, ptr noundef byval(%"struct.__gnu_cxx::__ops::_Iter_comp_iter") align 8 %13)
  br label %47

40:                                               ; preds = %5
  %41 = load ptr, ptr %6, align 8, !tbaa !128
  %42 = load ptr, ptr %11, align 8, !tbaa !128
  %43 = load ptr, ptr %8, align 8, !tbaa !128
  call void @llvm.memcpy.p0.p0.i64(ptr align 8 %14, ptr align 8 %4, i64 24, i1 false), !tbaa.struct !430
  call void @_ZSt24__merge_sort_with_bufferIPiS0_N9__gnu_cxx5__ops15_Iter_comp_iterIN11OpenImageIO6v3_1_012_GLOBAL__N_116SampleComparatorEEEEvT_S9_T0_T1_(ptr noundef %41, ptr noundef %42, ptr noundef %43, ptr noundef byval(%"struct.__gnu_cxx::__ops::_Iter_comp_iter") align 8 %14)
  %44 = load ptr, ptr %11, align 8, !tbaa !128
  %45 = load ptr, ptr %7, align 8, !tbaa !128
  %46 = load ptr, ptr %8, align 8, !tbaa !128
  call void @llvm.memcpy.p0.p0.i64(ptr align 8 %15, ptr align 8 %4, i64 24, i1 false), !tbaa.struct !430
  call void @_ZSt24__merge_sort_with_bufferIPiS0_N9__gnu_cxx5__ops15_Iter_comp_iterIN11OpenImageIO6v3_1_012_GLOBAL__N_116SampleComparatorEEEEvT_S9_T0_T1_(ptr noundef %44, ptr noundef %45, ptr noundef %46, ptr noundef byval(%"struct.__gnu_cxx::__ops::_Iter_comp_iter") align 8 %15)
  br label %47

47:                                               ; preds = %40, %31
  %48 = load ptr, ptr %6, align 8, !tbaa !128
  %49 = load ptr, ptr %11, align 8, !tbaa !128
  %50 = load ptr, ptr %7, align 8, !tbaa !128
  %51 = load ptr, ptr %11, align 8, !tbaa !128
  %52 = load ptr, ptr %6, align 8, !tbaa !128
  %53 = ptrtoint ptr %51 to i64
  %54 = ptrtoint ptr %52 to i64
  %55 = sub i64 %53, %54
  %56 = sdiv exact i64 %55, 4
  %57 = load ptr, ptr %7, align 8, !tbaa !128
  %58 = load ptr, ptr %11, align 8, !tbaa !128
  %59 = ptrtoint ptr %57 to i64
  %60 = ptrtoint ptr %58 to i64
  %61 = sub i64 %59, %60
  %62 = sdiv exact i64 %61, 4
  %63 = load ptr, ptr %8, align 8, !tbaa !128
  %64 = load i64, ptr %9, align 8, !tbaa !64
  call void @llvm.memcpy.p0.p0.i64(ptr align 8 %16, ptr align 8 %4, i64 24, i1 false), !tbaa.struct !430
  call void @_ZSt16__merge_adaptiveIPilS0_N9__gnu_cxx5__ops15_Iter_comp_iterIN11OpenImageIO6v3_1_012_GLOBAL__N_116SampleComparatorEEEEvT_S9_S9_T0_SA_T1_SA_T2_(ptr noundef %48, ptr noundef %49, ptr noundef %50, i64 noundef %56, i64 noundef %62, ptr noundef %63, i64 noundef %64, ptr noundef byval(%"struct.__gnu_cxx::__ops::_Iter_comp_iter") align 8 %16)
  call void @llvm.lifetime.end.p0(i64 8, ptr %11) #3
  call void @llvm.lifetime.end.p0(i64 8, ptr %10) #3
  ret void
}