; Function Attrs: mustprogress uwtable
define internal fastcc void @_ZSt22__stable_sort_adaptiveIPiS0_lN9__gnu_cxx5__ops15_Iter_comp_iterIN11OpenImageIO6v3_1_012_GLOBAL__N_116SampleComparatorEEEEvT_S9_T0_T1_T2_(ptr noundef nonnull %0, ptr noundef nonnull %1, ptr noundef %2, i64 noundef %3, ptr noundef readonly byval(%"struct.__gnu_cxx::__ops::_Iter_comp_iter") align 8 captures(none) %4) unnamed_addr #5 {
  %6 = ptrtoint ptr %1 to i64
  %7 = ptrtoint ptr %0 to i64
  %8 = sub i64 %6, %7
  %9 = ashr exact i64 %8, 2
  %10 = add nsw i64 %9, 1
  %11 = sdiv i64 %10, 2
  %12 = getelementptr inbounds i32, ptr %0, i64 %11
  %13 = icmp sgt i64 %11, %3
  br i1 %13, label %14, label %15

14:                                               ; preds = %5
  tail call fastcc void @_ZSt22__stable_sort_adaptiveIPiS0_lN9__gnu_cxx5__ops15_Iter_comp_iterIN11OpenImageIO6v3_1_012_GLOBAL__N_116SampleComparatorEEEEvT_S9_T0_T1_T2_(ptr noundef %0, ptr noundef %12, ptr noundef %2, i64 noundef %3, ptr noundef nonnull byval(%"struct.__gnu_cxx::__ops::_Iter_comp_iter") align 8 %4)
  tail call fastcc void @_ZSt22__stable_sort_adaptiveIPiS0_lN9__gnu_cxx5__ops15_Iter_comp_iterIN11OpenImageIO6v3_1_012_GLOBAL__N_116SampleComparatorEEEEvT_S9_T0_T1_T2_(ptr noundef %12, ptr noundef %1, ptr noundef %2, i64 noundef %3, ptr noundef nonnull byval(%"struct.__gnu_cxx::__ops::_Iter_comp_iter") align 8 %4)
  br label %16

15:                                               ; preds = %5
  tail call fastcc void @_ZSt24__merge_sort_with_bufferIPiS0_N9__gnu_cxx5__ops15_Iter_comp_iterIN11OpenImageIO6v3_1_012_GLOBAL__N_116SampleComparatorEEEEvT_S9_T0_T1_(ptr noundef %0, ptr noundef %12, ptr noundef %2, ptr noundef nonnull byval(%"struct.__gnu_cxx::__ops::_Iter_comp_iter") align 8 %4)
  tail call fastcc void @_ZSt24__merge_sort_with_bufferIPiS0_N9__gnu_cxx5__ops15_Iter_comp_iterIN11OpenImageIO6v3_1_012_GLOBAL__N_116SampleComparatorEEEEvT_S9_T0_T1_(ptr noundef %12, ptr noundef %1, ptr noundef %2, ptr noundef nonnull byval(%"struct.__gnu_cxx::__ops::_Iter_comp_iter") align 8 %4)
  br label %16

16:                                               ; preds = %15, %14
  %17 = ptrtoint ptr %12 to i64
  %18 = sub i64 %6, %17
  %19 = ashr exact i64 %18, 2
  tail call fastcc void @_ZSt16__merge_adaptiveIPilS0_N9__gnu_cxx5__ops15_Iter_comp_iterIN11OpenImageIO6v3_1_012_GLOBAL__N_116SampleComparatorEEEEvT_S9_S9_T0_SA_T1_SA_T2_(ptr noundef nonnull %0, ptr noundef nonnull %12, ptr noundef nonnull %1, i64 noundef %11, i64 noundef %19, ptr noundef %2, i64 noundef %3, ptr noundef nonnull byval(%"struct.__gnu_cxx::__ops::_Iter_comp_iter") align 8 %4)
  ret void
}